target datalayout = "e-m:e-p270:32:32-p271:32:32-p272:64:64-i64:64-i128:128-f80:128-n8:16:32:64-S128"
target triple = "x86_64-pc-linux-gnu"

; Function Attrs: nounwind uwtable
define zeroext i1 @lv_obj_is_scrolling(ptr noundef %0) #0 {
  %2 = alloca i1, align 1
  %3 = alloca ptr, align 8
  %4 = alloca ptr, align 8
  %5 = alloca i32, align 4
  store ptr %0, ptr %3, align 8, !tbaa !3
  call void @llvm.lifetime.start.p0(i64 8, ptr %4) #5
  %6 = call ptr @lv_indev_get_next(ptr noundef null)
  store ptr %6, ptr %4, align 8, !tbaa !3
  br label %7

7:                                                ; preds = %16, %1
  %8 = load ptr, ptr %4, align 8, !tbaa !3
  %9 = icmp ne ptr %8, null
  br i1 %9, label %10, label %19

10:                                               ; preds = %7
  %11 = load ptr, ptr %4, align 8, !tbaa !3
  %12 = call ptr @lv_indev_get_scroll_obj(ptr noundef %11)
  %13 = load ptr, ptr %3, align 8, !tbaa !3
  %14 = icmp eq ptr %12, %13
  br i1 %14, label %15, label %16

15:                                               ; preds = %10
  store i1 true, ptr %2, align 1
  store i32 1, ptr %5, align 4
  br label %29

16:                                               ; preds = %10
  %17 = load ptr, ptr %4, align 8, !tbaa !3
  %18 = call ptr @lv_indev_get_next(ptr noundef %17)
  store ptr %18, ptr %4, align 8, !tbaa !3
  br label %7, !llvm.loop !40

19:                                               ; preds = %7
  %20 = load ptr, ptr %3, align 8, !tbaa !3
  %21 = call ptr @lv_anim_get(ptr noundef %20, ptr noundef @scroll_x_anim)
  %22 = icmp ne ptr %21, null
  br i1 %22, label %27, label %23

23:                                               ; preds = %19
  %24 = load ptr, ptr %3, align 8, !tbaa !3
  %25 = call ptr @lv_anim_get(ptr noundef %24, ptr noundef @scroll_y_anim)
  %26 = icmp ne ptr %25, null
  br i1 %26, label %27, label %28

27:                                               ; preds = %23, %19
  store i1 true, ptr %2, align 1
  store i32 1, ptr %5, align 4
  br label %29

28:                                               ; preds = %23
  store i1 false, ptr %2, align 1
  store i32 1, ptr %5, align 4
  br label %29

29:                                               ; preds = %28, %27, %15
  call void @llvm.lifetime.end.p0(i64 8, ptr %4) #5
  %30 = load i1, ptr %2, align 1
  ret i1 %30
}