; Function Attrs: nounwind uwtable
define zeroext i1 @lv_obj_is_scrolling(ptr noundef %0) local_unnamed_addr #0 {
  %2 = tail call ptr @lv_indev_get_next(ptr noundef null) #5
  %.not10 = icmp eq ptr %2, null
  br i1 %.not10, label %._crit_edge, label %.lr.ph

.lr.ph:                                           ; preds = %1, %5
  %.011 = phi ptr [ %6, %5 ], [ %2, %1 ]
  %3 = tail call ptr @lv_indev_get_scroll_obj(ptr noundef nonnull %.011) #5
  %4 = icmp eq ptr %3, %0
  br i1 %4, label %.loopexit, label %5

5:                                                ; preds = %.lr.ph
  %6 = tail call ptr @lv_indev_get_next(ptr noundef nonnull %.011) #5
  %.not = icmp eq ptr %6, null
  br i1 %.not, label %._crit_edge, label %.lr.ph, !llvm.loop !38

._crit_edge:                                      ; preds = %5, %1
  %7 = tail call ptr @lv_anim_get(ptr noundef %0, ptr noundef nonnull @scroll_x_anim) #5
  %.not8 = icmp eq ptr %7, null
  br i1 %.not8, label %8, label %.loopexit

8:                                                ; preds = %._crit_edge
  %9 = tail call ptr @lv_anim_get(ptr noundef %0, ptr noundef nonnull @scroll_y_anim) #5
  %.not9 = icmp ne ptr %9, null
  br label %.loopexit

.loopexit:                                        ; preds = %.lr.ph, %8, %._crit_edge
  %.07 = phi i1 [ true, %._crit_edge ], [ %.not9, %8 ], [ true, %.lr.ph ]
  ret i1 %.07
}